target datalayout = "e-m:e-p270:32:32-p271:32:32-p272:64:64-i64:64-i128:128-f80:128-n8:16:32:64-S128"
target triple = "x86_64-unknown-linux-gnu"

%struct.tdefl_output_buffer = type { i64, i64, ptr, i32 }

; Function Attrs: nounwind uwtable
define hidden i64 @tdefl_compress_mem_to_mem(ptr noundef %pOut_buf, i64 noundef %out_buf_len, ptr noundef %pSrc_buf, i64 noundef %src_buf_len, i32 noundef %flags) #0 {
entry:
  %retval = alloca i64, align 8
  %pOut_buf.addr = alloca ptr, align 8
  %out_buf_len.addr = alloca i64, align 8
  %pSrc_buf.addr = alloca ptr, align 8
  %src_buf_len.addr = alloca i64, align 8
  %flags.addr = alloca i32, align 4
  %out_buf = alloca %struct.tdefl_output_buffer, align 8
  store ptr %pOut_buf, ptr %pOut_buf.addr, align 8
  store i64 %out_buf_len, ptr %out_buf_len.addr, align 8
  store ptr %pSrc_buf, ptr %pSrc_buf.addr, align 8
  store i64 %src_buf_len, ptr %src_buf_len.addr, align 8
  store i32 %flags, ptr %flags.addr, align 4
  call void @llvm.memset.p0.i64(ptr align 8 %out_buf, i8 0, i64 32, i1 false)
  %0 = load ptr, ptr %pOut_buf.addr, align 8
  %tobool = icmp ne ptr %0, null
  br i1 %tobool, label %if.end, label %if.then

if.then:                                          ; preds = %entry
  store i64 0, ptr %retval, align 8
  br label %return

if.end:                                           ; preds = %entry
  %1 = load ptr, ptr %pOut_buf.addr, align 8
  %m_pBuf = getelementptr inbounds %struct.tdefl_output_buffer, ptr %out_buf, i32 0, i32 2
  store ptr %1, ptr %m_pBuf, align 8
  %2 = load i64, ptr %out_buf_len.addr, align 8
  %m_capacity = getelementptr inbounds %struct.tdefl_output_buffer, ptr %out_buf, i32 0, i32 1
  store i64 %2, ptr %m_capacity, align 8
  %3 = load ptr, ptr %pSrc_buf.addr, align 8
  %4 = load i64, ptr %src_buf_len.addr, align 8
  %5 = load i32, ptr %flags.addr, align 4
  %call = call i32 @tdefl_compress_mem_to_output(ptr noundef %3, i64 noundef %4, ptr noundef @tdefl_output_buffer_putter, ptr noundef %out_buf, i32 noundef %5)
  %tobool1 = icmp ne i32 %call, 0
  br i1 %tobool1, label %if.end3, label %if.then2

if.then2:                                         ; preds = %if.end
  store i64 0, ptr %retval, align 8
  br label %return

if.end3:                                          ; preds = %if.end
  %m_size = getelementptr inbounds %struct.tdefl_output_buffer, ptr %out_buf, i32 0, i32 0
  %6 = load i64, ptr %m_size, align 8
  store i64 %6, ptr %retval, align 8
  br label %return

return:                                           ; preds = %if.end3, %if.then2, %if.then
  %7 = load i64, ptr %retval, align 8
  ret i64 %7
}