; Function Attrs: nounwind uwtable
define hidden i64 @tdefl_compress_mem_to_mem(ptr noundef %pOut_buf, i64 noundef %out_buf_len, ptr noundef %pSrc_buf, i64 noundef %src_buf_len, i32 noundef %flags) local_unnamed_addr #4 {
entry:
  %out_buf = alloca %struct.tdefl_output_buffer, align 8
  call void @llvm.memset.p0.i64(ptr noundef nonnull align 8 dereferenceable(32) %out_buf, i8 0, i64 32, i1 false)
  %tobool.not = icmp eq ptr %pOut_buf, null
  br i1 %tobool.not, label %return, label %if.end

if.end:                                           ; preds = %entry
  %m_pBuf = getelementptr inbounds nuw i8, ptr %out_buf, i64 16
  store ptr %pOut_buf, ptr %m_pBuf, align 8
  %m_capacity = getelementptr inbounds nuw i8, ptr %out_buf, i64 8
  store i64 %out_buf_len, ptr %m_capacity, align 8
  %call = call i32 @tdefl_compress_mem_to_output(ptr noundef %pSrc_buf, i64 noundef %src_buf_len, ptr noundef nonnull @tdefl_output_buffer_putter, ptr noundef nonnull %out_buf, i32 noundef %flags)
  %tobool1.not = icmp eq i32 %call, 0
  %0 = load i64, ptr %out_buf, align 8
  %spec.select = select i1 %tobool1.not, i64 0, i64 %0
  br label %return

return:                                           ; preds = %if.end, %entry
  %retval.0 = phi i64 [ 0, %entry ], [ %spec.select, %if.end ]
  ret i64 %retval.0
}